Certificate:
    Data:
        Version: 3 (0x2)
        Serial Number: 3 (0x3)
    Signature Algorithm: sha256WithRSAEncryption
        Issuer: C=US, ST=CA, L=San Francisco, O=kalyaka.me, OU=kalyaka.me Certificate Authority, CN=kalyaka.me CA
        Validity
            Not Before: Aug 27 19:46:57 2017 GMT
            Not After : Aug 27 19:46:57 2027 GMT
        Subject: C=US, ST=CA, L=San Francisco, O=kalyaka.me, OU=kalyaka.me Certificate Authority, CN=kalyaka.me TLS CA
        Subject Public Key Info:
            Public Key Algorithm: rsaEncryption
                Public-Key: (2048 bit)
                Modulus:
                    00:b1:51:46:bf:7b:29:21:a0:77:8f:6c:38:19:27:
                    0e:b7:47:92:b5:f6:1d:ab:2e:c0:44:d9:ad:ba:bc:
                    a1:e1:db:86:c2:86:7e:ea:90:d0:85:82:67:90:11:
                    5b:80:69:be:97:b8:40:24:92:8c:d9:2f:e8:91:e8:
                    1f:c5:5e:12:c5:c3:31:05:3c:0d:3b:20:c8:72:d6:
                    3c:15:fd:75:f2:57:89:73:4c:2e:68:2d:e7:6c:7c:
                    21:3b:04:b5:5c:37:03:c4:16:f0:44:bd:63:8e:c5:
                    4b:08:f0:5b:47:9a:fb:60:f5:4f:de:db:49:86:75:
                    f4:4f:bf:87:31:53:cb:63:05:1b:16:ec:a9:c3:62:
                    c1:dd:6e:4f:20:0f:69:4f:96:47:f8:38:df:f0:14:
                    06:2e:5a:f8:1e:a8:14:c7:8c:c5:00:03:c4:5b:12:
                    02:24:81:60:30:98:4f:95:38:7f:29:7e:79:4a:4c:
                    b8:68:2e:2a:d6:76:4a:0c:d5:52:70:94:72:f6:29:
                    88:05:9a:78:f3:f3:42:85:2c:ba:29:0a:df:5d:27:
                    be:7b:7b:72:fa:bc:29:70:ff:fc:96:41:8d:ee:24:
                    a7:fe:2b:a8:09:b0:5c:8f:a4:55:5e:5b:26:4f:c0:
                    96:08:6c:f7:f5:46:3d:16:15:95:dd:17:e4:b5:5e:
                    1d:1d
                Exponent: 65537 (0x10001)
        X509v3 extensions:
            X509v3 Key Usage: critical
                Certificate Sign, CRL Sign
            X509v3 Basic Constraints: critical
                CA:TRUE, pathlen:0
            X509v3 Subject Key Identifier: 
                90:A5:76:C3:29:C1:24:26:93:32:5E:98:2A:3B:49:56:C6:06:DF:E3
            X509v3 Authority Key Identifier: 
                keyid:1F:E8:81:2D:90:40:9A:C6:E5:3F:F4:C1:B7:4E:E3:0D:D1:7E:3B:C0

            Authority Information Access: 
                CA Issuers - URI:http://kalyaka.github.io/ca/root-ca.cer

            X509v3 CRL Distribution Points: 

                Full Name:
                  URI:http://kalyaka.github.io/ca/root-ca.crl

    Signature Algorithm: sha256WithRSAEncryption
         3d:e7:43:51:81:9e:ad:49:78:83:5d:d6:0f:d4:a8:d6:d2:fd:
         ef:8d:ed:93:e1:f7:d4:7e:35:57:00:77:15:02:14:6a:eb:aa:
         8e:07:11:54:39:9c:3e:99:3a:19:83:df:a2:38:49:dc:0f:f4:
         00:02:19:0f:cb:86:c9:5d:7a:4b:52:87:eb:6a:f9:68:59:2b:
         ec:63:67:05:6e:8e:de:d1:b3:6e:ed:72:18:b6:f6:c3:da:1b:
         c6:3e:8c:87:4f:2a:97:f4:70:4a:e9:55:46:16:41:2f:2d:45:
         5f:da:e7:6c:e6:de:28:f2:89:68:51:9c:a9:26:95:6f:ed:04:
         4f:8e:2c:b7:7c:ff:64:43:69:31:a1:64:18:ea:5f:f1:64:cb:
         09:4d:1c:ba:fc:14:c4:b0:1d:19:df:fb:1b:5d:d0:9d:ac:9b:
         af:53:b2:80:29:79:89:44:e8:1e:8a:9c:5a:fc:71:a0:9c:75:
         31:ee:dd:61:d4:4d:5c:e4:40:8b:d5:55:18:7e:86:fe:26:10:
         dd:5e:1c:1d:38:bc:fe:9a:2b:af:6b:fa:1c:fb:ef:6c:a4:12:
         f7:a3:e0:7d:60:f4:64:33:de:4f:6e:f5:33:f5:2c:92:71:d6:
         91:5d:c5:ee:b0:3d:51:9a:24:dd:d3:f9:d7:18:df:f5:1c:b5:
         67:c5:31:14
-----BEGIN CERTIFICATE-----
MIIEfDCCA2SgAwIBAgIBAzANBgkqhkiG9w0BAQsFADCBijELMAkGA1UEBhMCVVMx
CzAJBgNVBAgMAkNBMRYwFAYDVQQHDA1TYW4gRnJhbmNpc2NvMRMwEQYDVQQKDApr
YWx5YWthLm1lMSkwJwYDVQQLDCBrYWx5YWthLm1lIENlcnRpZmljYXRlIEF1dGhv
cml0eTEWMBQGA1UEAwwNa2FseWFrYS5tZSBDQTAeFw0xNzA4MjcxOTQ2NTdaFw0y
NzA4MjcxOTQ2NTdaMIGOMQswCQYDVQQGEwJVUzELMAkGA1UECAwCQ0ExFjAUBgNV
BAcMDVNhbiBGcmFuY2lzY28xEzARBgNVBAoMCmthbHlha2EubWUxKTAnBgNVBAsM
IGthbHlha2EubWUgQ2VydGlmaWNhdGUgQXV0aG9yaXR5MRowGAYDVQQDDBFrYWx5
YWthLm1lIFRMUyBDQTCCASIwDQYJKoZIhvcNAQEBBQADggEPADCCAQoCggEBALFR
Rr97KSGgd49sOBknDrdHkrX2HasuwETZrbq8oeHbhsKGfuqQ0IWCZ5ARW4Bpvpe4
QCSSjNkv6JHoH8VeEsXDMQU8DTsgyHLWPBX9dfJXiXNMLmgt52x8ITsEtVw3A8QW
8ES9Y47FSwjwW0ea+2D1T97bSYZ19E+/hzFTy2MFGxbsqcNiwd1uTyAPaU+WR/g4
3/AUBi5a+B6oFMeMxQADxFsSAiSBYDCYT5U4fyl+eUpMuGguKtZ2SgzVUnCUcvYp
iAWaePPzQoUsuikK310nvnt7cvq8KXD//JZBje4kp/4rqAmwXI+kVV5bJk/Alghs
9/VGPRYVld0X5LVeHR0CAwEAAaOB5jCB4zAOBgNVHQ8BAf8EBAMCAQYwEgYDVR0T
AQH/BAgwBgEB/wIBADAdBgNVHQ4EFgQUkKV2wynBJCaTMl6YKjtJVsYG3+MwHwYD
VR0jBBgwFoAUH+iBLZBAmsblP/TBt07jDdF+O8AwQwYIKwYBBQUHAQEENzA1MDMG
CCsGAQUFBzAChidodHRwOi8va2FseWFrYS5naXRodWIuaW8vY2Evcm9vdC1jYS5j
ZXIwOAYDVR0fBDEwLzAtoCugKYYnaHR0cDovL2thbHlha2EuZ2l0aHViLmlvL2Nh
L3Jvb3QtY2EuY3JsMA0GCSqGSIb3DQEBCwUAA4IBAQA950NRgZ6tSXiDXdYP1KjW
0v3vje2T4ffUfjVXAHcVAhRq66qOBxFUOZw+mToZg9+iOEncD/QAAhkPy4bJXXpL
UofravloWSvsY2cFbo7e0bNu7XIYtvbD2hvGPoyHTyqX9HBK6VVGFkEvLUVf2uds
5t4o8oloUZypJpVv7QRPjiy3fP9kQ2kxoWQY6l/xZMsJTRy6/BTEsB0Z3/sbXdCd
rJuvU7KAKXmJROgeipxa/HGgnHUx7t1h1E1c5ECL1VUYfob+JhDdXhwdOLz+miuv
a/oc++9spBL3o+B9YPRkM95PbvUz9SyScdaRXcXusD1RmiTd0/nXGN/1HLVnxTEU
-----END CERTIFICATE-----
